target datalayout = "e-m:e-p270:32:32-p271:32:32-p272:64:64-i64:64-i128:128-f80:128-n8:16:32:64-S128"
target triple = "x86_64-pc-linux-gnu"

%struct.AfterTriggersData = type { i32, ptr, %struct.AfterTriggerEventList, ptr, ptr, i32, i32, ptr, i32 }
%struct.AfterTriggerEventList = type { ptr, ptr, ptr }

@afterTriggers = internal global %struct.AfterTriggersData zeroinitializer, align 8

; Function Attrs: nounwind uwtable
define dso_local void @AfterTriggerEndXact(i1 noundef zeroext %0) #0 {
  %2 = alloca i8, align 1
  %3 = zext i1 %0 to i8
  store i8 %3, ptr %2, align 1
  %4 = load ptr, ptr getelementptr inbounds nuw (%struct.AfterTriggersData, ptr @afterTriggers, i32 0, i32 3), align 8
  %5 = icmp ne ptr %4, null
  br i1 %5, label %6, label %8

6:                                                ; preds = %1
  %7 = load ptr, ptr getelementptr inbounds nuw (%struct.AfterTriggersData, ptr @afterTriggers, i32 0, i32 3), align 8
  call void @MemoryContextDelete(ptr noundef %7)
  store ptr null, ptr getelementptr inbounds nuw (%struct.AfterTriggersData, ptr @afterTriggers, i32 0, i32 3), align 8
  store ptr null, ptr getelementptr inbounds nuw (%struct.AfterTriggersData, ptr @afterTriggers, i32 0, i32 2), align 8
  store ptr null, ptr getelementptr inbounds nuw (%struct.AfterTriggerEventList, ptr getelementptr inbounds nuw (%struct.AfterTriggersData, ptr @afterTriggers, i32 0, i32 2), i32 0, i32 1), align 8
  store ptr null, ptr getelementptr inbounds nuw (%struct.AfterTriggerEventList, ptr getelementptr inbounds nuw (%struct.AfterTriggersData, ptr @afterTriggers, i32 0, i32 2), i32 0, i32 2), align 8
  br label %8

8:                                                ; preds = %6, %1
  store ptr null, ptr getelementptr inbounds nuw (%struct.AfterTriggersData, ptr @afterTriggers, i32 0, i32 7), align 8
  store i32 0, ptr getelementptr inbounds nuw (%struct.AfterTriggersData, ptr @afterTriggers, i32 0, i32 8), align 8
  store ptr null, ptr getelementptr inbounds nuw (%struct.AfterTriggersData, ptr @afterTriggers, i32 0, i32 4), align 8
  store i32 0, ptr getelementptr inbounds nuw (%struct.AfterTriggersData, ptr @afterTriggers, i32 0, i32 6), align 4
  store ptr null, ptr getelementptr inbounds nuw (%struct.AfterTriggersData, ptr @afterTriggers, i32 0, i32 1), align 8
  store i32 -1, ptr getelementptr inbounds nuw (%struct.AfterTriggersData, ptr @afterTriggers, i32 0, i32 5), align 8
  ret void
}