; Function Attrs: nounwind uwtable
define dso_local void @AfterTriggerEndXact(i1 noundef zeroext %0) local_unnamed_addr #0 {
  %2 = load ptr, ptr getelementptr inbounds nuw (i8, ptr @afterTriggers, i64 40), align 8
  %.not = icmp eq ptr %2, null
  br i1 %.not, label %4, label %3

3:                                                ; preds = %1
  tail call void @MemoryContextDelete(ptr noundef nonnull %2) #16
  tail call void @llvm.memset.p0.i64(ptr noundef nonnull align 8 dereferenceable(32) getelementptr inbounds nuw (i8, ptr @afterTriggers, i64 16), i8 0, i64 32, i1 false)
  br label %4

4:                                                ; preds = %3, %1
  store ptr null, ptr getelementptr inbounds nuw (i8, ptr @afterTriggers, i64 48), align 8
  store ptr null, ptr getelementptr inbounds nuw (i8, ptr @afterTriggers, i64 8), align 8
  tail call void @llvm.memset.p0.i64(ptr noundef nonnull align 4 dereferenceable(16) getelementptr inbounds nuw (i8, ptr @afterTriggers, i64 60), i8 0, i64 16, i1 false)
  store i32 -1, ptr getelementptr inbounds nuw (i8, ptr @afterTriggers, i64 56), align 8
  ret void
}